; Function Attrs: nounwind uwtable
define ptr @l_Std_Format_joinSep___at___private_Lean_Setup_0__Lean_reprModuleSetup____x40_Lean_Setup___hyg_913____spec__3(ptr noundef %0, ptr noundef %1) local_unnamed_addr #0 {
  %3 = ptrtoint ptr %0 to i64
  %4 = and i64 %3, 1
  %.not.i34 = icmp eq i64 %4, 0
  br i1 %.not.i34, label %8, label %5

5:                                                ; preds = %2
  %6 = lshr i64 %3, 1
  %7 = trunc i64 %6 to i32
  br label %lean_obj_tag.exit

8:                                                ; preds = %2
  %9 = getelementptr i8, ptr %0, i64 4
  %.val.i = load i32, ptr %9, align 4
  %10 = lshr i32 %.val.i, 24
  br label %lean_obj_tag.exit

lean_obj_tag.exit:                                ; preds = %5, %8
  %.0.i = phi i32 [ %7, %5 ], [ %10, %8 ]
  %11 = icmp eq i32 %.0.i, 0
  br i1 %11, label %12, label %22

12:                                               ; preds = %lean_obj_tag.exit
  %13 = ptrtoint ptr %1 to i64
  %14 = and i64 %13, 1
  %.not53 = icmp eq i64 %14, 0
  br i1 %.not53, label %15, label %lean_dec.exit27

15:                                               ; preds = %12
  %16 = load i32, ptr %1, align 4, !tbaa !8
  %17 = icmp sgt i32 %16, 1
  br i1 %17, label %18, label %20, !prof !11

18:                                               ; preds = %15
  %19 = add nsw i32 %16, -1
  store i32 %19, ptr %1, align 4, !tbaa !8
  br label %lean_dec.exit27

20:                                               ; preds = %15
  %.not.i = icmp eq i32 %16, 0
  br i1 %.not.i, label %lean_dec.exit27, label %21

21:                                               ; preds = %20
  tail call void @lean_dec_ref_cold(ptr noundef nonnull %1) #6
  br label %lean_dec.exit27

22:                                               ; preds = %lean_obj_tag.exit
  %23 = getelementptr inbounds nuw i8, ptr %0, i64 8
  %24 = getelementptr inbounds nuw i8, ptr %0, i64 16
  %25 = load ptr, ptr %24, align 8, !tbaa !4
  %26 = ptrtoint ptr %25 to i64
  %27 = and i64 %26, 1
  %.not = icmp eq i64 %27, 0
  br i1 %.not, label %28, label %lean_inc.exit24

28:                                               ; preds = %22
  %.val.i35 = load i32, ptr %25, align 4, !tbaa !8
  %29 = icmp sgt i32 %.val.i35, 0
  br i1 %29, label %30, label %32, !prof !11

30:                                               ; preds = %28
  %31 = add nuw i32 %.val.i35, 1
  store i32 %31, ptr %25, align 4, !tbaa !8
  br label %36

32:                                               ; preds = %28
  %.not.i36 = icmp eq i32 %.val.i35, 0
  br i1 %.not.i36, label %36, label %33

33:                                               ; preds = %32
  tail call void @lean_inc_ref_cold(ptr noundef nonnull %25) #6
  br label %36

lean_inc.exit24:                                  ; preds = %22
  %34 = lshr i64 %26, 1
  %35 = trunc i64 %34 to i32
  br label %lean_obj_tag.exit40

36:                                               ; preds = %33, %32, %30
  %37 = getelementptr i8, ptr %25, i64 4
  %.val.i39 = load i32, ptr %37, align 4
  %38 = lshr i32 %.val.i39, 24
  br label %lean_obj_tag.exit40

lean_obj_tag.exit40:                              ; preds = %lean_inc.exit24, %36
  %.0.i38 = phi i32 [ %35, %lean_inc.exit24 ], [ %38, %36 ]
  %39 = icmp eq i32 %.0.i38, 0
  br i1 %39, label %40, label %67

40:                                               ; preds = %lean_obj_tag.exit40
  %41 = ptrtoint ptr %1 to i64
  %42 = and i64 %41, 1
  %.not50 = icmp eq i64 %42, 0
  br i1 %.not50, label %43, label %lean_dec.exit26

43:                                               ; preds = %40
  %44 = load i32, ptr %1, align 4, !tbaa !8
  %45 = icmp sgt i32 %44, 1
  br i1 %45, label %46, label %48, !prof !11

46:                                               ; preds = %43
  %47 = add nsw i32 %44, -1
  store i32 %47, ptr %1, align 4, !tbaa !8
  br label %lean_dec.exit26

48:                                               ; preds = %43
  %.not.i28 = icmp eq i32 %44, 0
  br i1 %.not.i28, label %lean_dec.exit26, label %49

49:                                               ; preds = %48
  tail call void @lean_dec_ref_cold(ptr noundef nonnull %1) #6
  br label %lean_dec.exit26

lean_dec.exit26:                                  ; preds = %49, %48, %46, %40
  %50 = load ptr, ptr %23, align 8, !tbaa !4
  %51 = ptrtoint ptr %50 to i64
  %52 = and i64 %51, 1
  %.not51 = icmp eq i64 %52, 0
  br i1 %.not51, label %53, label %lean_inc.exit23

53:                                               ; preds = %lean_dec.exit26
  %.val.i41 = load i32, ptr %50, align 4, !tbaa !8
  %54 = icmp sgt i32 %.val.i41, 0
  br i1 %54, label %55, label %57, !prof !11

55:                                               ; preds = %53
  %56 = add nuw i32 %.val.i41, 1
  store i32 %56, ptr %50, align 4, !tbaa !8
  br label %lean_inc.exit23

57:                                               ; preds = %53
  %.not.i42 = icmp eq i32 %.val.i41, 0
  br i1 %.not.i42, label %lean_inc.exit23, label %58

58:                                               ; preds = %57
  tail call void @lean_inc_ref_cold(ptr noundef nonnull %50) #6
  br label %lean_inc.exit23

lean_inc.exit23:                                  ; preds = %58, %57, %55, %lean_dec.exit26
  br i1 %.not.i34, label %59, label %lean_dec.exit25

59:                                               ; preds = %lean_inc.exit23
  %60 = load i32, ptr %0, align 4, !tbaa !8
  %61 = icmp sgt i32 %60, 1
  br i1 %61, label %62, label %64, !prof !11

62:                                               ; preds = %59
  %63 = add nsw i32 %60, -1
  store i32 %63, ptr %0, align 4, !tbaa !8
  br label %lean_dec.exit25

64:                                               ; preds = %59
  %.not.i30 = icmp eq i32 %60, 0
  br i1 %.not.i30, label %lean_dec.exit25, label %65

65:                                               ; preds = %64
  tail call void @lean_dec_ref_cold(ptr noundef nonnull %0) #6
  br label %lean_dec.exit25

lean_dec.exit25:                                  ; preds = %65, %64, %62, %lean_inc.exit23
  %66 = tail call ptr @l___private_Lean_Setup_0__Lean_reprImport____x40_Lean_Setup___hyg_34_(ptr noundef %50, ptr nonnull poison)
  br label %lean_dec.exit27

67:                                               ; preds = %lean_obj_tag.exit40
  %68 = load ptr, ptr %23, align 8, !tbaa !4
  %69 = ptrtoint ptr %68 to i64
  %70 = and i64 %69, 1
  %.not48 = icmp eq i64 %70, 0
  br i1 %.not48, label %71, label %lean_inc.exit

71:                                               ; preds = %67
  %.val.i44 = load i32, ptr %68, align 4, !tbaa !8
  %72 = icmp sgt i32 %.val.i44, 0
  br i1 %72, label %73, label %75, !prof !11

73:                                               ; preds = %71
  %74 = add nuw i32 %.val.i44, 1
  store i32 %74, ptr %68, align 4, !tbaa !8
  br label %lean_inc.exit

75:                                               ; preds = %71
  %.not.i45 = icmp eq i32 %.val.i44, 0
  br i1 %.not.i45, label %lean_inc.exit, label %76

76:                                               ; preds = %75
  tail call void @lean_inc_ref_cold(ptr noundef nonnull %68) #6
  br label %lean_inc.exit

lean_inc.exit:                                    ; preds = %76, %75, %73, %67
  br i1 %.not.i34, label %77, label %lean_dec.exit

77:                                               ; preds = %lean_inc.exit
  %78 = load i32, ptr %0, align 4, !tbaa !8
  %79 = icmp sgt i32 %78, 1
  br i1 %79, label %80, label %82, !prof !11

80:                                               ; preds = %77
  %81 = add nsw i32 %78, -1
  store i32 %81, ptr %0, align 4, !tbaa !8
  br label %lean_dec.exit

82:                                               ; preds = %77
  %.not.i32 = icmp eq i32 %78, 0
  br i1 %.not.i32, label %lean_dec.exit, label %83

83:                                               ; preds = %82
  tail call void @lean_dec_ref_cold(ptr noundef nonnull %0) #6
  br label %lean_dec.exit

lean_dec.exit:                                    ; preds = %83, %82, %80, %lean_inc.exit
  %84 = tail call ptr @l___private_Lean_Setup_0__Lean_reprImport____x40_Lean_Setup___hyg_34_(ptr noundef %68, ptr nonnull poison)
  %85 = tail call ptr @l_List_foldl___at___private_Lean_Setup_0__Lean_reprModuleSetup____x40_Lean_Setup___hyg_913____spec__4(ptr noundef %1, ptr noundef nonnull %84, ptr noundef %25)
  br label %lean_dec.exit27

lean_dec.exit27:                                  ; preds = %12, %18, %20, %21, %lean_dec.exit25, %lean_dec.exit
  %.0 = phi ptr [ %66, %lean_dec.exit25 ], [ %85, %lean_dec.exit ], [ inttoptr (i64 1 to ptr), %21 ], [ inttoptr (i64 1 to ptr), %20 ], [ inttoptr (i64 1 to ptr), %18 ], [ inttoptr (i64 1 to ptr), %12 ]
  ret ptr %.0
}